target datalayout = "e-m:e-p270:32:32-p271:32:32-p272:64:64-i64:64-i128:128-f80:128-n8:16:32:64-S128"
target triple = "x86_64-pc-linux-gnu"

%struct.Node = type { i32 }
%struct.Expr = type { i32 }
%struct.FieldStore = type { %struct.Expr, ptr, ptr, ptr, i32 }
%struct.RelabelType = type { %struct.Expr, ptr, i32, i32, i32, i32, i32 }
%struct.SubscriptingRef = type { %struct.Expr, i32, i32, i32, i32, i32, ptr, ptr, ptr, ptr }
%struct.CoerceToDomain = type { %struct.Expr, ptr, i32, i32, i32, i32, i32 }

; Function Attrs: nounwind uwtable
define internal zeroext i1 @isAssignmentIndirectionExpr(ptr noundef %0) #0 {
  %2 = alloca i1, align 1
  %3 = alloca ptr, align 8
  %4 = alloca ptr, align 8
  %5 = alloca i32, align 4
  %6 = alloca ptr, align 8
  %7 = alloca ptr, align 8
  %8 = alloca ptr, align 8
  store ptr %0, ptr %3, align 8
  %9 = load ptr, ptr %3, align 8
  %10 = icmp eq ptr %9, null
  br i1 %10, label %11, label %12

11:                                               ; preds = %1
  store i1 false, ptr %2, align 1
  br label %84

12:                                               ; preds = %1
  %13 = load ptr, ptr %3, align 8
  %14 = getelementptr inbounds nuw %struct.Node, ptr %13, i32 0, i32 0
  %15 = load i32, ptr %14, align 4
  %16 = icmp eq i32 %15, 26
  br i1 %16, label %17, label %35

17:                                               ; preds = %12
  call void @llvm.lifetime.start.p0(i64 8, ptr %4) #8
  %18 = load ptr, ptr %3, align 8
  store ptr %18, ptr %4, align 8
  %19 = load ptr, ptr %4, align 8
  %20 = getelementptr inbounds nuw %struct.FieldStore, ptr %19, i32 0, i32 1
  %21 = load ptr, ptr %20, align 8
  %22 = icmp ne ptr %21, null
  br i1 %22, label %23, label %31

23:                                               ; preds = %17
  %24 = load ptr, ptr %4, align 8
  %25 = getelementptr inbounds nuw %struct.FieldStore, ptr %24, i32 0, i32 1
  %26 = load ptr, ptr %25, align 8
  %27 = getelementptr inbounds nuw %struct.Node, ptr %26, i32 0, i32 0
  %28 = load i32, ptr %27, align 4
  %29 = icmp eq i32 %28, 34
  br i1 %29, label %30, label %31

30:                                               ; preds = %23
  store i1 true, ptr %2, align 1
  store i32 1, ptr %5, align 4
  br label %32

31:                                               ; preds = %23, %17
  store i32 0, ptr %5, align 4
  br label %32

32:                                               ; preds = %31, %30
  call void @llvm.lifetime.end.p0(i64 8, ptr %4) #8
  %33 = load i32, ptr %5, align 4
  switch i32 %33, label %86 [
    i32 0, label %34
    i32 1, label %84
  ]

34:                                               ; preds = %32
  br label %83

35:                                               ; preds = %12
  %36 = load ptr, ptr %3, align 8
  %37 = getelementptr inbounds nuw %struct.Node, ptr %36, i32 0, i32 0
  %38 = load i32, ptr %37, align 4
  %39 = icmp eq i32 %38, 14
  br i1 %39, label %40, label %58

40:                                               ; preds = %35
  call void @llvm.lifetime.start.p0(i64 8, ptr %6) #8
  %41 = load ptr, ptr %3, align 8
  store ptr %41, ptr %6, align 8
  %42 = load ptr, ptr %6, align 8
  %43 = getelementptr inbounds nuw %struct.SubscriptingRef, ptr %42, i32 0, i32 8
  %44 = load ptr, ptr %43, align 8
  %45 = icmp ne ptr %44, null
  br i1 %45, label %46, label %54

46:                                               ; preds = %40
  %47 = load ptr, ptr %6, align 8
  %48 = getelementptr inbounds nuw %struct.SubscriptingRef, ptr %47, i32 0, i32 8
  %49 = load ptr, ptr %48, align 8
  %50 = getelementptr inbounds nuw %struct.Node, ptr %49, i32 0, i32 0
  %51 = load i32, ptr %50, align 4
  %52 = icmp eq i32 %51, 34
  br i1 %52, label %53, label %54

53:                                               ; preds = %46
  store i1 true, ptr %2, align 1
  store i32 1, ptr %5, align 4
  br label %55

54:                                               ; preds = %46, %40
  store i32 0, ptr %5, align 4
  br label %55

55:                                               ; preds = %54, %53
  call void @llvm.lifetime.end.p0(i64 8, ptr %6) #8
  %56 = load i32, ptr %5, align 4
  switch i32 %56, label %86 [
    i32 0, label %57
    i32 1, label %84
  ]

57:                                               ; preds = %55
  br label %82

58:                                               ; preds = %35
  %59 = load ptr, ptr %3, align 8
  %60 = getelementptr inbounds nuw %struct.Node, ptr %59, i32 0, i32 0
  %61 = load i32, ptr %60, align 4
  %62 = icmp eq i32 %61, 55
  br i1 %62, label %63, label %69

63:                                               ; preds = %58
  call void @llvm.lifetime.start.p0(i64 8, ptr %7) #8
  %64 = load ptr, ptr %3, align 8
  store ptr %64, ptr %7, align 8
  %65 = load ptr, ptr %7, align 8
  %66 = getelementptr inbounds nuw %struct.CoerceToDomain, ptr %65, i32 0, i32 1
  %67 = load ptr, ptr %66, align 8
  %68 = call zeroext i1 @isAssignmentIndirectionExpr(ptr noundef %67)
  store i1 %68, ptr %2, align 1
  store i32 1, ptr %5, align 4
  call void @llvm.lifetime.end.p0(i64 8, ptr %7) #8
  br label %84

69:                                               ; preds = %58
  %70 = load ptr, ptr %3, align 8
  %71 = getelementptr inbounds nuw %struct.Node, ptr %70, i32 0, i32 0
  %72 = load i32, ptr %71, align 4
  %73 = icmp eq i32 %72, 27
  br i1 %73, label %74, label %80

74:                                               ; preds = %69
  call void @llvm.lifetime.start.p0(i64 8, ptr %8) #8
  %75 = load ptr, ptr %3, align 8
  store ptr %75, ptr %8, align 8
  %76 = load ptr, ptr %8, align 8
  %77 = getelementptr inbounds nuw %struct.RelabelType, ptr %76, i32 0, i32 1
  %78 = load ptr, ptr %77, align 8
  %79 = call zeroext i1 @isAssignmentIndirectionExpr(ptr noundef %78)
  store i1 %79, ptr %2, align 1
  store i32 1, ptr %5, align 4
  call void @llvm.lifetime.end.p0(i64 8, ptr %8) #8
  br label %84

80:                                               ; preds = %69
  br label %81

81:                                               ; preds = %80
  br label %82

82:                                               ; preds = %81, %57
  br label %83

83:                                               ; preds = %82, %34
  store i1 false, ptr %2, align 1
  br label %84

84:                                               ; preds = %83, %74, %63, %55, %32, %11
  %85 = load i1, ptr %2, align 1
  ret i1 %85

86:                                               ; preds = %55, %32
  unreachable
}