; Function Attrs: nofree norecurse nosync nounwind memory(read, inaccessiblemem: none) uwtable
define internal fastcc noundef zeroext i1 @isAssignmentIndirectionExpr(ptr noundef readonly captures(address_is_null) %0) unnamed_addr #6 {
  %2 = icmp eq ptr %0, null
  br i1 %2, label %.loopexit, label %.lr.ph

.lr.ph:                                           ; preds = %1, %tailrecurse.backedge
  %.tr33 = phi ptr [ %.tr.be, %tailrecurse.backedge ], [ %0, %1 ]
  %3 = load i32, ptr %.tr33, align 4
  switch i32 %3, label %.loopexit [
    i32 26, label %4
    i32 14, label %10
    i32 55, label %tailrecurse.backedge
    i32 27, label %tailrecurse.backedge
  ]

4:                                                ; preds = %.lr.ph
  %5 = getelementptr inbounds nuw i8, ptr %.tr33, i64 8
  %6 = load ptr, ptr %5, align 8
  %.not23 = icmp eq ptr %6, null
  br i1 %.not23, label %.thread, label %7

7:                                                ; preds = %4
  %8 = load i32, ptr %6, align 4
  %9 = icmp eq i32 %8, 34
  br i1 %9, label %.loopexit, label %.thread

.thread:                                          ; preds = %4, %7
  br label %.loopexit

10:                                               ; preds = %.lr.ph
  %11 = getelementptr inbounds nuw i8, ptr %.tr33, i64 40
  %12 = load ptr, ptr %11, align 8
  %.not = icmp eq ptr %12, null
  br i1 %.not, label %.thread28, label %13

13:                                               ; preds = %10
  %14 = load i32, ptr %12, align 4
  %15 = icmp eq i32 %14, 34
  br i1 %15, label %.loopexit, label %.thread28

.thread28:                                        ; preds = %10, %13
  br label %.loopexit

tailrecurse.backedge:                             ; preds = %.lr.ph, %.lr.ph
  %.tr.be.in = getelementptr inbounds nuw i8, ptr %.tr33, i64 8
  %.tr.be = load ptr, ptr %.tr.be.in, align 8
  %16 = icmp eq ptr %.tr.be, null
  br i1 %16, label %.loopexit, label %.lr.ph

.loopexit:                                        ; preds = %tailrecurse.backedge, %.lr.ph, %1, %.thread, %.thread28, %13, %7
  %.0 = phi i1 [ true, %7 ], [ true, %13 ], [ false, %.thread28 ], [ false, %.thread ], [ false, %1 ], [ false, %.lr.ph ], [ false, %tailrecurse.backedge ]
  ret i1 %.0
}